(dp1
S'model'
p2
ccopy_reg
_reconstructor
p3
(ccocoa.model.ngram
MLENgramModel
p4
c__builtin__
object
p5
NtRp6
(dp7
S'ngrams'
p8
cnltk.probability
ConditionalFreqDist
p9
(tRp10
(S'offer'
p11
Vaccept
p12
tp13
cnltk.probability
FreqDist
p14
((dp15
S'unknown'
p16
I13
sS'disagree'
p17
I1
sS'agree'
p18
I1
sVaccept
p19
I11
stRp20
s(V<s>
p21
S'<start>'
p22
tp23
g14
((dp24
g22
I4010
stRp25
s(S'vague-price'
p26
S'inquiry'
p27
tp28
g14
((dp29
S'counter-price'
p30
I14
sg26
I1
sS'init-price'
p31
I22
sg27
I1
sS'inform'
p32
I7
stRp33
s(g32
g27
tp34
g14
((dp35
Vquit
p36
I1
sg26
I4
sg11
I3
sg16
I10
sg17
I126
sS'insist'
p37
I3
sg30
I19
sg32
I334
sg27
I36
sg31
I126
sg18
I1
stRp38
s(g22
S'intro'
p39
tp40
g14
((dp41
g26
I28
sg11
I9
sg16
I2431
sg17
I186
sVaccept
p42
I1
sg27
I505
sg31
I581
sg18
I6
stRp43
s(g32
g17
tp44
g14
((dp45
g31
I8
sg30
I3
sg26
I2
sg27
I4
sg16
I7
sg17
I8
stRp46
s(g26
g18
tp47
g14
((dp48
g30
I1
stRp49
s(g26
g37
tp50
g14
((dp51
g30
I3
sg27
I1
sg16
I1
stRp52
s(g16
Vquit
p53
tp54
g14
((dp55
Vquit
p56
I2
stRp57
s(g39
g31
tp58
g14
((dp59
g31
I12
sg30
I258
sg26
I15
sg27
I180
sg16
I81
sg17
I16
sg18
I19
stRp60
s(g37
g11
tp61
g14
((dp62
Vquit
p63
I1
sg11
I1
sg16
I8
sg17
I1
sg37
I1
sg30
I1
sg27
I2
sVaccept
p64
I37
sVreject
p65
I12
sg18
I4
stRp66
s(g26
g16
tp67
g14
((dp68
g26
I1
sg11
I3
sg16
I5
sg17
I2
sg37
I1
sg30
I10
sg27
I5
sg31
I24
sg18
I1
stRp69
s(g17
g30
tp70
g14
((dp71
g26
I2
sg11
I23
sg16
I37
sg17
I18
sg37
I4
sg30
I158
sg27
I14
sVreject
p72
I1
sg18
I30
stRp73
s(g39
g26
tp74
g14
((dp75
g31
I12
sg16
I3
sg26
I1
sg27
I9
sg17
I3
stRp76
s(g11
g27
tp77
g14
((dp78
g32
I19
sg17
I2
sg37
I3
sg30
I1
sg27
I4
sVaccept
p79
I9
sVreject
p80
I1
sg18
I1
stRp81
s(g18
g31
tp82
g14
((dp83
g30
I2
sg16
I1
stRp84
s(g31
g18
tp85
g14
((dp86
g30
I45
sg26
I2
sg27
I23
sg11
I69
sg16
I79
sg17
I6
sg18
I17
stRp87
s(g27
Vquit
p88
tp89
g14
((dp90
g31
I1
stRp91
s(g18
g17
tp92
g14
((dp93
g30
I5
sg27
I1
sg11
I12
sg16
I7
sg17
I1
sg18
I1
stRp94
s(g17
Vquit
p95
tp96
g14
((dp97
g16
I1
stRp98
s(g16
g17
tp99
g14
((dp100
Vquit
p101
I7
sg26
I12
sg11
I21
sg16
I70
sg17
I21
sVaccept
p102
I5
sg30
I35
sg27
I92
sg37
I2
sVreject
p103
I1
sg31
I126
sg18
I9
stRp104
s(g32
g16
tp105
g14
((dp106
Vquit
p107
I3
sg11
I78
sg16
I84
sg17
I31
sVaccept
p108
I15
sg30
I14
sg27
I21
sg37
I2
sg31
I58
sg18
I3
stRp109
s(g39
g11
tp110
g14
((dp111
g16
I5
sg17
I1
sg37
I1
sg30
I2
stRp112
s(g17
g16
tp113
g14
((dp114
Vquit
p115
I17
sg26
I1
sg11
I38
sg16
I75
sg17
I33
sg37
I2
sg30
I20
sg27
I22
sVaccept
p116
I3
sVreject
p117
I2
sg31
I41
sg18
I3
stRp118
s(g30
g30
tp119
g14
((dp120
Vquit
p121
I17
sg26
I24
sg11
I304
sg16
I774
sg17
I76
sg37
I117
sg30
I1235
sg27
I166
sVreject
p122
I2
sg18
I494
stRp123
s(g37
g18
tp124
g14
((dp125
g30
I2
sg27
I2
sg11
I21
sg16
I12
sg17
I1
sg18
I3
stRp126
s(g11
g16
tp127
g14
((dp128
g30
I2
sg27
I9
sVreject
p129
I15
sg16
I30
sg17
I5
sg18
I2
sVaccept
p130
I598
stRp131
s(g30
g11
tp132
g14
((dp133
Vquit
p134
I11
sg11
I1
sg16
I101
sg17
I11
sVaccept
p135
I241
sg30
I23
sg27
I4
sg37
I2
sVreject
p136
I63
sg18
I24
stRp137
s(g17
g27
tp138
g14
((dp139
g26
I3
sg11
I2
sg16
I9
sg17
I97
sVaccept
p140
I1
sg32
I210
sg27
I28
sg37
I1
sg30
I28
sg31
I82
stRp141
s(g18
g16
tp142
g14
((dp143
Vquit
p144
I1
sg11
I350
sg16
I57
sg17
I5
sVaccept
p145
I9
sg30
I16
sg27
I8
sg31
I1
sg18
I18
stRp146
s(g18
g26
tp147
g14
((dp148
g30
I2
stRp149
s(g11
g11
tp150
g14
((dp151
g16
I1
sVaccept
p152
I89
stRp153
s(g32
g37
tp154
g14
((dp155
g30
I2
sg26
I1
sg16
I2
sVaccept
p156
I1
sg11
I2
stRp157
s(g18
g18
tp158
g14
((dp159
g30
I6
sg27
I3
sg11
I85
sg16
I19
sg18
I9
sVaccept
p160
I4
stRp161
s(g27
g26
tp162
g14
((dp163
g31
I13
sg30
I10
sg26
I1
sg27
I6
sg16
I1
sg17
I1
stRp164
s(g31
g31
tp165
g14
((dp166
g16
I6
sg17
I3
sg27
I5
sg18
I7
sg30
I34
stRp167
s(g31
g17
tp168
g14
((dp169
Vquit
p170
I2
sg26
I3
sg11
I5
sg16
I19
sg17
I4
sg37
I9
sg30
I65
sg27
I18
sg31
I10
stRp171
s(g16
g27
tp172
g14
((dp173
Vquit
p174
I2
sg26
I8
sg11
I11
sg16
I28
sg17
I260
sVaccept
p175
I2
sg30
I48
sg32
I730
sg27
I143
sg31
I272
sg18
I4
stRp176
s(g37
g26
tp177
g14
((dp178
g30
I3
stRp179
s(g11
g32
tp180
g14
((dp181
Vaccept
p182
I5
stRp183
s(g11
Vreject
p184
tp185
g14
((dp186
Vaccept
p187
I1
stRp188
s(g18
g11
tp189
g14
((dp190
g11
I32
sg16
I156
sg17
I4
sVaccept
p191
I574
sg30
I2
sg27
I3
sVreject
p192
I2
sg18
I21
stRp193
s(g39
g27
tp194
g14
((dp195
g31
I116
sg32
I202
sg26
I3
sg27
I96
sg11
I1
sg16
I22
sg17
I65
stRp196
s(g16
g26
tp197
g14
((dp198
g31
I20
sg30
I6
sg26
I6
sg27
I8
sg16
I8
sg17
I1
sg37
I1
stRp199
s(g16
Vreject
p200
tp201
g14
((dp202
g16
I1
stRp203
s(g32
g26
tp204
g14
((dp205
g31
I19
sg30
I3
sg26
I5
sg27
I4
sg16
I12
sg17
I1
stRp206
s(g17
g26
tp207
g14
((dp208
g31
I18
sg30
I9
sg26
I1
sg27
I3
sg16
I8
sg17
I3
stRp209
s(g30
g17
tp210
g14
((dp211
Vquit
p212
I24
sg26
I1
sg11
I41
sg16
I34
sg17
I9
sg37
I15
sg30
I60
sg27
I11
sg18
I7
stRp213
s(g22
g11
tp214
g14
((dp215
g30
I1
sg26
I1
sg27
I3
sg16
I6
sg17
I1
sg18
I1
stRp216
s(g31
g11
tp217
g14
((dp218
Vquit
p219
I1
sg30
I10
sg16
I6
sVreject
p220
I8
sg18
I2
sVaccept
p221
I16
stRp222
s(g11
g18
tp223
g14
((dp224
g16
I11
sg17
I1
sg18
I6
sVaccept
p225
I100
sVreject
p226
I2
stRp227
s(g30
g37
tp228
g14
((dp229
Vquit
p230
I6
sg26
I1
sg11
I33
sg16
I43
sg17
I11
sg37
I14
sg30
I51
sg27
I11
sg18
I23
stRp231
s(g27
g37
tp232
g14
((dp233
g30
I11
sg27
I3
sg11
I5
sg16
I15
sg18
I4
sg37
I1
stRp234
s(g27
g17
tp235
g14
((dp236
Vquit
p237
I3
sg26
I21
sg11
I15
sg16
I76
sg17
I18
sg37
I1
sg30
I104
sg32
I3
sg27
I238
sg31
I278
sg18
I11
stRp238
s(g31
g30
tp239
g14
((dp240
Vquit
p241
I3
sg26
I19
sg11
I67
sg16
I451
sg17
I56
sg37
I43
sg30
I1206
sg27
I143
sg18
I295
stRp242
s(g17
g37
tp243
g14
((dp244
Vquit
p245
I1
sg27
I2
sg30
I12
sg11
I3
sg16
I8
sg18
I2
stRp246
s(g39
g16
tp247
g14
((dp248
g26
I22
sg11
I4
sg16
I792
sg17
I147
sg27
I880
sg200
I1
sg31
I581
sg18
I4
stRp249
s(g16
g30
tp250
g14
((dp251
Vquit
p252
I4
sg26
I6
sg11
I37
sg16
I94
sg17
I18
sg37
I5
sg30
I206
sg27
I24
sVaccept
p253
I1
sg18
I44
stRp254
s(g22
g31
tp255
g14
((dp256
g26
I12
sg11
I1
sg16
I72
sg17
I9
sg30
I107
sg27
I39
sg31
I3
sg18
I7
stRp257
s(g16
g11
tp258
g14
((dp259
Vquit
p260
I5
sg26
I1
sg11
I53
sg16
I307
sg17
I17
sVaccept
p261
I1471
sg30
I8
sg27
I23
sg37
I4
sVreject
p262
I10
sg18
I59
stRp263
s(g39
g18
tp264
g14
((dp265
g16
I2
sg27
I3
sg31
I1
stRp266
s(g30
g27
tp267
g14
((dp268
Vquit
p269
I1
sg26
I3
sg11
I21
sg16
I6
sg17
I48
sg37
I20
sg30
I66
sg32
I210
sg27
I19
sg18
I1
stRp270
s(g37
g17
tp271
g14
((dp272
Vquit
p273
I1
sg11
I2
sg16
I3
sg17
I1
sg37
I1
sg30
I4
sVreject
p274
I2
sg18
I1
stRp275
s(g27
g16
tp276
g14
((dp277
Vquit
p278
I1
sg26
I1
sg11
I1
sg16
I27
sg17
I9
sg30
I5
sg32
I1
sg27
I22
sg31
I17
sg18
I1
stRp279
s(g39
g17
tp280
g14
((dp281
g31
I70
sg26
I4
sg27
I82
sg11
I1
sg16
I23
sg17
I6
stRp282
s(g22
g22
tp283
g14
((dp284
g39
I3747
sg31
I250
sg11
I13
stRp285
s(g31
g37
tp286
g14
((dp287
g30
I3
sg16
I1
stRp288
s(g17
g17
tp289
g14
((dp290
Vquit
p291
I3
sg11
I5
sg16
I12
sg17
I6
sVaccept
p292
I1
sg30
I11
sg27
I13
sg31
I22
sg18
I1
stRp293
s(g39
g42
tp294
g14
((dp295
g16
I1
stRp296
s(g27
g18
tp297
g14
((dp298
g16
I2
sg18
I1
sVaccept
p299
I3
sg11
I10
stRp300
s(g30
g26
tp301
g14
((dp302
Vquit
p303
I2
sg26
I4
sg11
I5
sg16
I7
sg17
I7
sg37
I2
sg30
I30
sg27
I5
sg18
I1
stRp304
s(g17
g32
tp305
g14
((dp306
g27
I1
sg17
I1
sg11
I1
stRp307
s(g26
g30
tp308
g14
((dp309
Vquit
p310
I1
sg26
I1
sg11
I6
sg16
I25
sg17
I4
sg30
I65
sg27
I6
sg18
I8
stRp311
s(g27
g32
tp312
g14
((dp313
Vquit
p314
I2
sg26
I43
sg11
I135
sg16
I310
sg17
I32
sVaccept
p315
I7
sg30
I236
sg32
I8
sg27
I662
sg37
I7
sg31
I650
sg18
I77
stRp316
s(g18
g30
tp317
g14
((dp318
g30
I47
sg26
I2
sg27
I4
sg11
I8
sg16
I21
sg17
I5
sg18
I16
stRp319
s(g16
g37
tp320
g14
((dp321
g26
I1
sg11
I19
sg16
I23
sg17
I3
sVaccept
p322
I1
sg30
I21
sg27
I4
sg18
I7
stRp323
s(g32
g31
tp324
g14
((dp325
Vquit
p326
I1
sg26
I11
sg11
I15
sg16
I102
sg17
I22
sg37
I1
sg30
I400
sg27
I36
sg31
I9
sg18
I47
stRp327
s(g11
Vquit
p328
tp329
g14
((dp330
Vaccept
p331
I1
stRp332
s(g30
g18
tp333
g14
((dp334
Vquit
p335
I2
sg11
I473
sg16
I292
sg17
I16
sg37
I4
sg30
I45
sg27
I28
sVaccept
p336
I3
sg18
I80
stRp337
s(g16
g31
tp338
g14
((dp339
Vquit
p340
I2
sg26
I20
sg11
I12
sg16
I154
sg17
I47
sg37
I2
sg30
I679
sg27
I150
sg31
I18
sg18
I75
stRp341
s(g200
g16
tp342
g14
((dp343
g16
I1
stRp344
s(g27
g11
tp345
g14
((dp346
Vquit
p347
I1
sg32
I5
sg16
I19
sg37
I1
sg30
I1
sg27
I1
sVaccept
p348
I27
sVreject
p349
I2
sg18
I3
stRp350
s(g21
g21
tp351
g14
((dp352
g22
I4010
stRp353
s(g17
g18
tp354
g14
((dp355
Vquit
p356
I1
sg27
I1
sg16
I10
sg30
I3
sg11
I15
stRp357
s(g37
g16
tp358
g14
((dp359
Vquit
p360
I3
sg11
I53
sg16
I18
sg17
I2
sg37
I5
sg30
I6
sg27
I2
sVaccept
p361
I4
sVreject
p362
I2
sg18
I4
stRp363
s(g27
g30
tp364
g14
((dp365
Vquit
p366
I3
sg26
I7
sg11
I17
sg16
I66
sg17
I7
sg37
I4
sg30
I170
sg27
I32
sg18
I23
stRp367
s(g11
g37
tp368
g14
((dp369
g16
I4
sg18
I1
sVaccept
p370
I3
sVreject
p371
I2
stRp372
s(g30
g16
tp373
g14
((dp374
Vquit
p375
I16
sg26
I4
sg11
I918
sg16
I289
sg17
I29
sVaccept
p376
I5
sg30
I147
sg27
I43
sg37
I39
sVreject
p377
I3
sg18
I50
stRp378
s(g11
g17
tp379
g14
((dp380
Vquit
p381
I2
sg27
I2
sg30
I1
sg16
I4
sVreject
p382
I11
sVaccept
p383
I17
stRp384
s(g27
g27
tp385
g14
((dp386
g26
I1
sg11
I8
sg16
I6
sg17
I60
sg37
I1
sg32
I159
sg27
I31
sg30
I41
sg31
I83
sg18
I4
stRp387
s(g32
g30
tp388
g14
((dp389
g26
I3
sg11
I13
sg16
I49
sg17
I14
sg37
I6
sg30
I125
sg27
I5
sg18
I20
stRp390
s(g26
g17
tp391
g14
((dp392
g31
I7
sVquit
p393
I3
sg27
I1
sg30
I4
sg16
I2
sg17
I2
stRp394
s(g32
g11
tp395
g14
((dp396
g328
I1
sg11
I1
sg16
I38
sg17
I1
sVaccept
p397
I82
sg30
I2
sg27
I2
sVreject
p398
I2
sg18
I5
stRp399
s(g31
g16
tp400
g14
((dp401
Vquit
p402
I2
sg26
I2
sg11
I125
sg16
I181
sg17
I44
sg37
I20
sg30
I115
sg27
I60
sg31
I35
sg18
I13
stRp403
s(g31
g26
tp404
g14
((dp405
g26
I2
sg11
I1
sg16
I10
sg17
I3
sg37
I2
sg30
I48
sg27
I10
sg31
I4
stRp406
s(g27
g31
tp407
g14
((dp408
Vquit
p409
I1
sg26
I11
sg11
I8
sg16
I83
sg17
I22
sg37
I1
sg30
I445
sg27
I110
sg31
I2
sg18
I38
stRp410
s(g26
g31
tp411
g14
((dp412
g16
I9
sg30
I68
sg27
I9
sg18
I6
sg11
I2
stRp413
s(g37
g37
tp414
g14
((dp415
g11
I3
sg16
I2
sg17
I1
sVaccept
p416
I1
sg30
I3
sg27
I1
sg37
I1
sg18
I4
stRp417
s(g37
g27
tp418
g14
((dp419
Vquit
p420
I1
sg11
I1
sg17
I3
sg37
I3
sg32
I7
sg27
I2
sg30
I4
sg18
I1
stRp421
s(g32
g32
tp422
g14
((dp423
g30
I1
sg26
I1
sg27
I5
sg32
I1
sg16
I1
sg37
I1
stRp424
s(g16
g32
tp425
g14
((dp426
g32
I1
stRp427
s(g11
g26
tp428
g14
((dp429
g30
I1
stRp430
s(g37
g30
tp431
g14
((dp432
Vquit
p433
I1
sg11
I13
sg16
I25
sg17
I4
sg37
I8
sg30
I33
sg27
I3
sVreject
p434
I1
sg18
I18
stRp435
s(g32
g18
tp436
g14
((dp437
g27
I6
sg11
I44
sg16
I20
sg17
I1
sg18
I3
sVaccept
p438
I2
stRp439
s(g17
g11
tp440
g14
((dp441
Vquit
p442
I3
sg11
I2
sg16
I15
sg17
I1
sVaccept
p443
I62
sg30
I3
sg27
I2
sg37
I1
sVreject
p444
I11
sg18
I1
stRp445
s(g11
g30
tp446
g14
((dp447
Vquit
p448
I3
sg16
I10
sg17
I1
sg37
I7
sg30
I6
sVaccept
p449
I10
sVreject
p450
I15
sg18
I1
stRp451
s(g16
g18
tp452
g14
((dp453
Vquit
p454
I3
sg11
I77
sg16
I18
sg17
I2
sVaccept
p455
I5
sg30
I2
sg27
I6
sg31
I2
sg18
I7
stRp456
s(g31
g27
tp457
g14
((dp458
Vquit
p459
I1
sg26
I9
sg11
I8
sg16
I3
sg17
I106
sg37
I7
sg30
I101
sg32
I264
sg27
I31
sg31
I24
sg18
I1
stRp460
s(g18
g37
tp461
g14
((dp462
g30
I1
sg11
I3
stRp463
s(g26
g11
tp464
g14
((dp465
g27
I1
sVaccept
p466
I2
sVreject
p467
I4
stRp468
s(g17
g31
tp469
g14
((dp470
Vquit
p471
I1
sg26
I11
sg11
I8
sg16
I89
sg17
I17
sg30
I312
sg27
I26
sg31
I11
sg18
I43
stRp472
s(g42
g16
tp473
g14
((dp474
g16
I1
stRp475
s(g26
g26
tp476
g14
((dp477
Vquit
p478
I1
sg31
I10
sg16
I3
sg30
I5
sg11
I1
stRp479
s(g16
Vaccept
p480
tp481
g14
((dp482
g16
I2
sg30
I1
stRp483
s(g18
g27
tp484
g14
((dp485
Vquit
p486
I1
sg11
I6
sg16
I1
sg17
I6
sg37
I1
sg30
I10
sg32
I39
sg27
I4
sVaccept
p487
I1
sg18
I3
stRp488
s(g16
g16
tp489
g14
((dp490
Vquit
p491
I21
sg26
I19
sg11
I389
sg16
I445
sg17
I96
sVaccept
p492
I29
sg30
I111
sg27
I440
sg37
I11
sVreject
p493
I2
sg31
I415
sg18
I23
stRp494
ssS'_order'
p495
I3
sS'_ngrams'
p496
ccollections
defaultdict
p497
(g9
tRp498
I2
g9
(tRp499
(g32
tp500
g14
((dp501
g314
I2
sg26
I44
sg11
I136
sg16
I311
sg17
I33
sg315
I12
sg30
I237
sg32
I10
sg27
I668
sg37
I8
sg31
I650
sg18
I77
stRp502
s(g22
tp503
g14
((dp504
g22
I4010
sg39
I3747
sg31
I250
sg11
I13
stRp505
s(g31
tp506
g14
((dp507
g340
I5
sg26
I80
sg11
I46
sg16
I597
sg17
I136
sg37
I4
sg30
I2305
sg27
I555
sg31
I55
sg18
I242
stRp508
s(g200
tp509
g14
((dp510
g16
I1
sg187
I1
stRp511
s(g18
tp512
g14
((dp513
g454
I6
sg26
I2
sg11
I794
sg16
I465
sg17
I27
sg225
I117
sg30
I104
sg27
I72
sg37
I4
sg226
I2
sg31
I3
sg18
I126
stRp514
s(g21
tp515
g14
((dp516
g22
I4010
stRp517
s(g26
tp518
g14
((dp519
g478
I3
sg26
I20
sg11
I7
sg16
I52
sg17
I19
sg37
I5
sg30
I117
sg27
I45
sg31
I96
sg18
I1
stRp520
s(g16
tp521
g14
((dp522
g491
I64
sg26
I50
sg11
I1959
sg16
I2005
sg17
I403
sg130
I663
sg30
I446
sg32
I1
sg27
I1512
sg37
I80
sg129
I25
sg31
I1172
sg18
I122
stRp523
s(g12
tp524
g14
((dp525
g16
I16
sg17
I1
sg18
I1
sg19
I11
sg30
I1
stRp526
s(g95
tp527
g14
((dp528
g16
I1
sg31
I1
sg331
I1
sg56
I2
stRp529
s(g30
tp530
g14
((dp531
g121
I32
sg26
I64
sg11
I488
sg16
I1552
sg17
I203
sg37
I194
sg30
I3251
sg27
I397
sg449
I11
sg122
I19
sg18
I949
stRp532
s(g17
tp533
g14
((dp534
g212
I45
sg26
I43
sg11
I102
sg16
I257
sg17
I76
sg37
I28
sg30
I292
sg32
I3
sg27
I462
sg383
I23
sg382
I14
sg31
I521
sg18
I30
stRp535
s(g11
tp536
g14
((dp537
g134
I23
sg26
I2
sg11
I90
sg16
I662
sg17
I37
sg191
I2601
sg30
I53
sg32
I5
sg27
I41
sg37
I10
sg220
I114
sg18
I120
stRp538
s(g39
tp539
g14
((dp540
g26
I28
sg11
I9
sg16
I2431
sg17
I186
sg42
I1
sg27
I505
sg31
I581
sg18
I6
stRp541
s(g37
tp542
g14
((dp543
g230
I7
sg26
I3
sg11
I68
sg16
I99
sg17
I15
sg37
I16
sg30
I107
sg27
I22
sg416
I6
sg371
I2
sg18
I41
stRp544
s(g27
tp545
g14
((dp546
g486
I7
sg26
I32
sg11
I61
sg16
I85
sg17
I773
sg37
I39
sg30
I332
sg32
I2181
sg27
I395
sg79
I13
sg80
I1
sg31
I725
sg18
I16
stRp547
ssI3
g10
ssS'ngram_counter'
p548
g3
(ccocoa.model.counter
NgramCounter
p549
g5
NtRp550
(dp551
S'unk_label'
p552
V<UNK>
p553
sS'vocabulary'
p554
ccocoa.model.counter
NgramModelVocabulary
p555
((dp556
g22
I8020
sg26
I368
sg11
I3773
sg17
I1909
sg37
I388
sg30
I7245
sg39
I3747
sg191
I3460
sg491
I196
sg21
I1
sg16
I8534
sg32
I2200
sg27
I4674
sg220
I177
sg31
I4054
sg18
I1731
stRp557
sg8
g498
sS'unigrams'
p558
g14
((dp559
g22
I8020
sg26
I368
sg11
I3773
sg17
I1909
sg37
I388
sg30
I7245
sg39
I3747
sg191
I3460
sg491
I196
sg21
I8020
sg16
I8534
sg32
I2200
sg27
I4674
sg220
I177
sg31
I4054
sg18
I1731
stRp560
sS'ngrams_kwargs'
p561
(dp562
Vpad_left
p563
I01
sVpad_right
p564
I00
sVleft_pad_symbol
p565
g21
sVright_pad_symbol
p566
V</s>
p567
ssS'order'
p568
I3
sbsbsS'actions'
p569
(lp570
g22
ag26
ag11
ag16
ag17
ag491
ag37
ag30
ag39
ag27
ag191
ag220
ag32
ag31
ag18
as.