(dp1
S'model'
p2
ccopy_reg
_reconstructor
p3
(ccocoa.model.ngram
MLENgramModel
p4
c__builtin__
object
p5
NtRp6
(dp7
S'ngrams'
p8
cnltk.probability
ConditionalFreqDist
p9
(tRp10
(S'offer'
p11
Vaccept
p12
tp13
cnltk.probability
FreqDist
p14
((dp15
S'unknown'
p16
I13
sS'disagree'
p17
I1
sS'agree'
p18
I1
sVaccept
p19
I11
stRp20
s(V<s>
p21
S'<start>'
p22
tp23
g14
((dp24
g22
I4010
stRp25
s(S'vague-price'
p26
S'inquiry'
p27
tp28
g14
((dp29
Vquit
p30
I1
sg26
I8
sg11
I3
sg16
I1
sg17
I10
sS'counter-price'
p31
I13
sS'inform'
p32
I46
sg27
I21
sS'init-price'
p33
I17
sg18
I2
stRp34
s(g32
g27
tp35
g14
((dp36
Vquit
p37
I1
sg26
I19
sg11
I11
sg16
I15
sg17
I163
sS'insist'
p38
I2
sg32
I474
sg27
I76
sg31
I22
sg33
I125
sg18
I5
stRp39
s(g27
g17
tp40
g14
((dp41
Vquit
p42
I6
sg26
I28
sg11
I27
sg16
I164
sg17
I29
sg38
I2
sg31
I70
sg32
I3
sg27
I324
sg33
I243
sg18
I11
stRp43
s(g32
g17
tp44
g14
((dp45
g26
I4
sg11
I3
sg16
I19
sg17
I12
sVaccept
p46
I2
sg31
I4
sg27
I14
sg33
I12
stRp47
s(g18
g26
tp48
g14
((dp49
g31
I3
stRp50
s(g26
g38
tp51
g14
((dp52
g16
I1
sg27
I2
sg11
I2
stRp53
s(g16
Vquit
p54
tp55
g14
((dp56
Vquit
p57
I2
stRp58
s(S'intro'
p59
g33
tp60
g14
((dp61
g33
I5
sg31
I118
sg26
I17
sg27
I153
sg16
I97
sg17
I23
sg18
I8
stRp62
s(g38
g11
tp63
g14
((dp64
Vquit
p65
I1
sg11
I1
sg16
I9
sVaccept
p66
I30
sg31
I1
sg27
I1
sVreject
p67
I7
sg18
I2
stRp68
s(g26
g16
tp69
g14
((dp70
Vquit
p71
I3
sg26
I8
sg11
I43
sg16
I70
sg17
I9
sg38
I1
sg31
I12
sg27
I34
sg33
I27
sg18
I3
stRp72
s(g17
g31
tp73
g14
((dp74
Vquit
p75
I1
sg26
I10
sg11
I38
sg16
I68
sg17
I17
sg31
I65
sg27
I27
sVreject
p76
I1
sg18
I23
stRp77
s(g59
g26
tp78
g14
((dp79
g33
I12
sg16
I8
sg26
I5
sg17
I3
sg27
I10
stRp80
s(g11
g27
tp81
g14
((dp82
g32
I25
sg17
I4
sg38
I1
sg31
I1
sg27
I5
sVaccept
p83
I10
sVreject
p84
I1
sg18
I1
stRp85
s(g18
g33
tp86
g14
((dp87
g16
I1
sg11
I1
sg31
I1
stRp88
s(g33
g18
tp89
g14
((dp90
g31
I19
sg26
I2
sg27
I14
sg11
I47
sg16
I56
sg17
I5
sg18
I9
stRp91
s(g27
Vquit
p92
tp93
g14
((dp94
g33
I1
stRp95
s(g18
g17
tp96
g14
((dp97
Vquit
p98
I1
sg27
I1
sg31
I2
sg11
I7
sg16
I6
sg18
I1
stRp99
s(g17
Vquit
p100
tp101
g14
((dp102
g16
I1
stRp103
s(g16
g17
tp104
g14
((dp105
Vquit
p106
I10
sg26
I17
sg11
I34
sg16
I152
sg17
I39
sVaccept
p107
I4
sg31
I23
sg27
I143
sg38
I3
sVreject
p108
I3
sg33
I119
sg18
I3
stRp109
s(g32
g16
tp110
g14
((dp111
Vquit
p112
I5
sg26
I10
sg11
I207
sg16
I215
sg17
I56
sVaccept
p113
I20
sg31
I12
sg27
I38
sg38
I4
sVreject
p114
I3
sg33
I63
sg18
I1
stRp115
s(g22
g59
tp116
g14
((dp117
g26
I38
sg11
I10
sg16
I2601
sg17
I205
sVaccept
p118
I1
sg27
I543
sg33
I421
sg18
I6
stRp119
s(g59
g11
tp120
g14
((dp121
g16
I8
sg17
I1
sg31
I1
stRp122
s(g17
g16
tp123
g14
((dp124
Vquit
p125
I21
sg26
I13
sg11
I89
sg16
I179
sg17
I53
sg38
I3
sg31
I21
sg27
I44
sVaccept
p126
I3
sVreject
p127
I2
sg33
I65
sg18
I9
stRp128
s(g31
g31
tp129
g14
((dp130
Vquit
p131
I5
sg26
I13
sg11
I127
sg16
I370
sg17
I39
sg38
I44
sg31
I472
sg27
I79
sg18
I211
stRp132
s(g17
g26
tp133
g14
((dp134
Vquit
p135
I1
sg26
I6
sg11
I1
sg16
I22
sg17
I6
sg31
I9
sg27
I7
sg33
I14
stRp136
s(g11
g16
tp137
g14
((dp138
Vquit
p139
I2
sg16
I33
sg17
I4
sVaccept
p140
I610
sg31
I2
sg27
I10
sg38
I1
sVreject
p141
I19
sg18
I2
stRp142
s(g31
g11
tp143
g14
((dp144
Vquit
p145
I7
sg11
I2
sg16
I75
sg17
I11
sVaccept
p146
I192
sg31
I8
sg27
I4
sVreject
p147
I38
sg18
I13
stRp148
s(g17
g27
tp149
g14
((dp150
g26
I16
sg11
I7
sg16
I14
sg17
I119
sVaccept
p151
I1
sg32
I306
sg27
I51
sg38
I3
sg31
I28
sg33
I93
sg18
I2
stRp152
s(g18
g16
tp153
g14
((dp154
Vquit
p155
I1
sg11
I209
sg16
I38
sg17
I2
sVaccept
p156
I6
sg31
I7
sg27
I8
sg33
I1
sg18
I10
stRp157
s(g26
g18
tp158
g14
((dp159
g16
I1
sg11
I5
stRp160
s(g11
g11
tp161
g14
((dp162
g16
I1
sVaccept
p163
I89
stRp164
s(g32
g38
tp165
g14
((dp166
g16
I4
sg26
I1
sg11
I3
stRp167
s(g18
g18
tp168
g14
((dp169
g27
I3
sg11
I51
sg16
I9
sVreject
p170
I1
sg18
I3
sVaccept
p171
I2
stRp172
s(g27
g26
tp173
g14
((dp174
g33
I18
sg31
I4
sg26
I5
sg27
I28
sg11
I1
sg16
I38
sg17
I6
stRp175
s(g33
g33
tp176
g14
((dp177
g31
I18
sg27
I1
sg11
I2
sg16
I6
sg17
I1
sg18
I5
stRp178
s(g33
g17
tp179
g14
((dp180
Vquit
p181
I6
sg26
I6
sg11
I14
sg16
I41
sg17
I11
sg38
I9
sg31
I89
sg27
I27
sg33
I8
stRp182
s(g16
g27
tp183
g14
((dp184
Vquit
p185
I3
sg26
I27
sg11
I26
sg16
I31
sg17
I332
sVaccept
p186
I3
sg31
I39
sg32
I993
sg27
I196
sg38
I1
sg33
I233
sg18
I8
stRp187
s(g38
g26
tp188
g14
((dp189
g31
I4
sg11
I2
sg38
I1
sg16
I1
stRp190
s(g11
g32
tp191
g14
((dp192
g17
I1
sVaccept
p193
I8
stRp194
s(g11
Vreject
p195
tp196
g14
((dp197
Vaccept
p198
I1
stRp199
s(g18
g11
tp200
g14
((dp201
g27
I3
sg11
I27
sg16
I97
sVreject
p202
I2
sg17
I3
sg18
I14
sVaccept
p203
I385
stRp204
s(g59
g27
tp205
g14
((dp206
g33
I77
sg32
I248
sg26
I4
sg27
I114
sg11
I1
sg16
I27
sg17
I72
stRp207
s(g16
g26
tp208
g14
((dp209
Vquit
p210
I1
sg26
I13
sg11
I5
sg16
I45
sg17
I8
sg38
I1
sg31
I9
sg27
I25
sg33
I29
sg18
I3
stRp211
s(g16
Vreject
p212
tp213
g14
((dp214
g16
I1
stRp215
s(g32
g26
tp216
g14
((dp217
g33
I15
sg31
I5
sg26
I7
sg27
I8
sg16
I29
sg17
I4
sg18
I1
stRp218
s(g38
g18
tp219
g14
((dp220
g16
I7
sg11
I8
sg27
I2
sg17
I1
sg18
I2
stRp221
s(g31
g17
tp222
g14
((dp223
Vquit
p224
I12
sg26
I1
sg11
I40
sg16
I30
sg17
I8
sg38
I11
sg31
I48
sg27
I10
sVreject
p225
I1
sg18
I4
stRp226
s(g11
g31
tp227
g14
((dp228
Vquit
p229
I1
sg16
I9
sg17
I1
sg38
I3
sg31
I1
sg27
I1
sVaccept
p230
I6
sVreject
p231
I10
sg18
I1
stRp232
s(g33
g11
tp233
g14
((dp234
Vquit
p235
I1
sg11
I2
sg16
I10
sg17
I1
sVaccept
p236
I30
sg31
I5
sg27
I1
sVreject
p237
I7
sg18
I2
stRp238
s(g11
g18
tp239
g14
((dp240
g16
I8
sg18
I4
sVaccept
p241
I87
sVreject
p242
I1
stRp243
s(g31
g38
tp244
g14
((dp245
Vquit
p246
I3
sg26
I1
sg11
I13
sg16
I20
sg17
I5
sg38
I4
sg31
I15
sg27
I3
sg18
I9
stRp247
s(g27
g38
tp248
g14
((dp249
g31
I6
sg27
I4
sg11
I9
sg16
I18
sg17
I1
sg18
I4
sg38
I1
stRp250
s(g59
g16
tp251
g14
((dp252
g26
I31
sg11
I4
sg16
I933
sg17
I171
sg27
I978
sg212
I1
sg33
I479
sg18
I4
stRp253
s(g33
g31
tp254
g14
((dp255
Vquit
p256
I1
sg26
I17
sg11
I38
sg16
I260
sg17
I30
sg38
I21
sg31
I574
sg27
I97
sg18
I151
stRp257
s(g17
g38
tp258
g14
((dp259
g31
I5
sg26
I1
sg27
I4
sg11
I4
sg16
I10
sg17
I1
sg18
I2
stRp260
s(g16
g31
tp261
g14
((dp262
Vquit
p263
I2
sg26
I13
sg11
I74
sg16
I214
sg17
I31
sg38
I2
sg31
I83
sg27
I56
sVaccept
p264
I1
sg18
I43
stRp265
s(g22
g33
tp266
g14
((dp267
g33
I2
sg31
I50
sg26
I12
sg27
I35
sg16
I63
sg17
I10
stRp268
s(g16
g11
tp269
g14
((dp270
Vquit
p271
I6
sg26
I1
sg11
I51
sg16
I361
sg17
I19
sVaccept
p272
I1543
sg31
I9
sg27
I26
sg38
I7
sVreject
p273
I21
sg18
I59
stRp274
s(g59
g18
tp275
g14
((dp276
g16
I2
sg27
I3
sg33
I1
stRp277
s(g31
g27
tp278
g14
((dp279
Vquit
p280
I1
sg26
I1
sg11
I18
sg16
I4
sg17
I32
sg38
I22
sg32
I163
sg27
I23
sg31
I73
sg18
I4
stRp281
s(g38
g17
tp282
g14
((dp283
g31
I4
sg27
I1
sg11
I3
sg16
I3
sg17
I2
sg38
I1
stRp284
s(g27
g16
tp285
g14
((dp286
Vquit
p287
I1
sg26
I2
sg11
I2
sg16
I42
sg17
I15
sg32
I1
sg27
I26
sg31
I4
sg33
I19
stRp288
s(g59
g17
tp289
g14
((dp290
g33
I60
sg26
I5
sg27
I94
sg11
I1
sg16
I36
sg17
I9
stRp291
s(g22
g22
tp292
g14
((dp293
g59
I3825
sg33
I172
sg11
I13
stRp294
s(g33
g38
tp295
g14
((dp296
g31
I3
sg16
I1
stRp297
s(g17
g17
tp298
g14
((dp299
Vquit
p300
I8
sg26
I5
sg11
I10
sg16
I37
sg17
I11
sVaccept
p301
I1
sg31
I11
sg27
I20
sg38
I1
sg33
I19
stRp302
s(g59
g118
tp303
g14
((dp304
g16
I1
stRp305
s(g27
g18
tp306
g14
((dp307
Vquit
p308
I1
sg27
I2
sg11
I24
sg16
I5
sg33
I1
sg18
I3
sVaccept
p309
I3
stRp310
s(g31
g26
tp311
g14
((dp312
Vquit
p313
I4
sg26
I1
sg11
I8
sg16
I13
sg17
I5
sg38
I1
sg31
I34
sg27
I8
sg18
I1
stRp314
s(g17
g32
tp315
g14
((dp316
g27
I1
sg17
I1
sg11
I1
stRp317
s(g26
g31
tp318
g14
((dp319
Vquit
p320
I2
sg26
I9
sg11
I14
sg16
I61
sg17
I18
sg31
I37
sg27
I20
sg18
I11
stRp321
s(g27
g32
tp322
g14
((dp323
Vquit
p324
I4
sg26
I68
sg11
I287
sg16
I636
sg17
I69
sVaccept
p325
I10
sg31
I140
sg32
I10
sg27
I913
sg38
I8
sVreject
p326
I1
sg33
I610
sg18
I68
stRp327
s(g18
g31
tp328
g14
((dp329
g31
I17
sg26
I1
sg11
I5
sg16
I11
sg17
I1
sg18
I4
stRp330
s(g16
g38
tp331
g14
((dp332
g31
I10
sg26
I5
sg27
I9
sg11
I18
sg16
I22
sg17
I7
sg18
I5
stRp333
s(g32
g33
tp334
g14
((dp335
g26
I47
sg11
I15
sg16
I183
sg17
I41
sg38
I1
sg31
I215
sg27
I62
sg33
I5
sg18
I35
stRp336
s(g11
Vquit
p337
tp338
g14
((dp339
Vaccept
p340
I1
stRp341
s(g31
g18
tp342
g14
((dp343
g26
I1
sg11
I246
sg16
I159
sg17
I10
sg38
I3
sg31
I18
sg27
I8
sVaccept
p344
I1
sg18
I42
stRp345
s(g16
g33
tp346
g14
((dp347
Vquit
p348
I4
sg26
I61
sg11
I17
sg16
I306
sg17
I72
sg38
I2
sg31
I355
sg27
I176
sg33
I17
sg18
I48
stRp349
s(g212
g16
tp350
g14
((dp351
g16
I1
stRp352
s(g27
g11
tp353
g14
((dp354
Vquit
p355
I1
sg32
I9
sg16
I24
sg17
I1
sVaccept
p356
I47
sg31
I2
sg27
I4
sg38
I1
sVreject
p357
I7
sg18
I4
stRp358
s(g21
g21
tp359
g14
((dp360
g22
I4010
stRp361
s(g17
g18
tp362
g14
((dp363
Vquit
p364
I1
sg16
I5
sg31
I1
sg11
I12
stRp365
s(g38
g16
tp366
g14
((dp367
Vquit
p368
I2
sg11
I44
sg16
I15
sg17
I1
sg38
I3
sg31
I8
sg27
I2
sVaccept
p369
I4
sVreject
p370
I1
sg18
I3
stRp371
s(g27
g31
tp372
g14
((dp373
Vquit
p374
I1
sg26
I10
sg11
I42
sg16
I143
sg17
I16
sg38
I1
sg31
I70
sg27
I54
sg18
I24
stRp375
s(g11
g38
tp376
g14
((dp377
g16
I5
sVaccept
p378
I3
sVreject
p379
I1
stRp380
s(g31
g16
tp381
g14
((dp382
Vquit
p383
I9
sg26
I7
sg11
I642
sg16
I242
sg17
I21
sg38
I30
sg31
I135
sg27
I47
sVaccept
p384
I5
sVreject
p385
I1
sg18
I44
stRp386
s(g11
g17
tp387
g14
((dp388
Vquit
p389
I2
sg27
I3
sg31
I1
sg16
I5
sVreject
p390
I14
sVaccept
p391
I17
stRp392
s(g27
g27
tp393
g14
((dp394
g26
I13
sg11
I19
sg16
I14
sg17
I80
sg38
I1
sg31
I29
sg32
I288
sg27
I76
sg33
I82
sg18
I9
stRp395
s(g32
g31
tp396
g14
((dp397
g26
I3
sg11
I11
sg16
I40
sg17
I15
sg38
I1
sg31
I51
sg27
I6
sg18
I14
stRp398
s(g26
g17
tp399
g14
((dp400
Vquit
p401
I3
sg26
I1
sg11
I1
sg16
I11
sg17
I4
sg31
I4
sg27
I7
sg33
I6
stRp402
s(g32
g11
tp403
g14
((dp404
g337
I1
sg11
I5
sg16
I67
sg17
I1
sg38
I1
sg31
I1
sg27
I3
sVaccept
p405
I200
sVreject
p406
I3
sg18
I4
stRp407
s(g33
g16
tp408
g14
((dp409
Vquit
p410
I6
sg26
I11
sg11
I235
sg16
I270
sg17
I54
sg38
I30
sg31
I257
sg27
I86
sg33
I35
sg18
I19
stRp411
s(g33
g26
tp412
g14
((dp413
Vquit
p414
I1
sg26
I3
sg11
I6
sg16
I38
sg17
I5
sg38
I2
sg31
I103
sg27
I34
sg33
I3
sg18
I1
stRp415
s(g27
g33
tp416
g14
((dp417
Vquit
p418
I1
sg26
I28
sg11
I14
sg16
I190
sg17
I26
sg38
I1
sg31
I229
sg27
I125
sg18
I26
stRp419
s(g26
g33
tp420
g14
((dp421
g31
I37
sg26
I1
sg27
I22
sg11
I3
sg16
I30
sg17
I5
sg18
I4
stRp422
s(g38
g38
tp423
g14
((dp424
g31
I1
sg27
I1
sg18
I1
sg16
I2
stRp425
s(g38
g27
tp426
g14
((dp427
g31
I7
sg27
I2
sg32
I6
sg17
I3
sg18
I2
sg38
I3
stRp428
s(g32
g32
tp429
g14
((dp430
g16
I3
sg32
I1
sg26
I1
sg27
I6
sg31
I1
stRp431
s(g16
g32
tp432
g14
((dp433
g32
I1
stRp434
s(g11
g26
tp435
g14
((dp436
g16
I2
sVaccept
p437
I1
stRp438
s(g38
g31
tp439
g14
((dp440
g31
I10
sg26
I1
sg27
I3
sg11
I5
sg16
I10
sg18
I10
sg38
I1
stRp441
s(g32
g18
tp442
g14
((dp443
g27
I4
sg11
I46
sg16
I14
sg17
I2
sg18
I1
sVaccept
p444
I1
stRp445
s(g17
g11
tp446
g14
((dp447
Vquit
p448
I5
sg26
I1
sg11
I2
sg16
I22
sg17
I3
sVaccept
p449
I77
sg31
I5
sg27
I3
sVreject
p450
I17
sg18
I2
stRp451
s(g22
g11
tp452
g14
((dp453
g16
I6
sg26
I2
sg27
I3
sg17
I1
sg31
I1
stRp454
s(g16
g18
tp455
g14
((dp456
Vquit
p457
I3
sg11
I92
sg16
I16
sVaccept
p458
I6
sg31
I1
sg27
I7
sg33
I1
sg18
I5
stRp459
s(g33
g27
tp460
g14
((dp461
Vquit
p462
I1
sg26
I12
sg11
I14
sg16
I5
sg17
I94
sg38
I9
sg31
I145
sg32
I272
sg27
I47
sg33
I20
sg18
I4
stRp463
s(g18
g38
tp464
g14
((dp465
g11
I3
stRp466
s(g26
g11
tp467
g14
((dp468
Vquit
p469
I1
sg27
I1
sVreject
p470
I12
sg16
I4
sg17
I1
sVaccept
p471
I8
stRp472
s(g17
g33
tp473
g14
((dp474
g26
I33
sg11
I9
sg16
I131
sg17
I33
sg31
I174
sg27
I52
sg33
I4
sg18
I27
stRp475
s(g118
g16
tp476
g14
((dp477
g16
I1
stRp478
s(g26
g26
tp479
g14
((dp480
Vquit
p481
I1
sg26
I2
sg27
I3
sg31
I3
sg11
I4
sg16
I16
sg33
I13
stRp482
s(g16
Vaccept
p483
tp484
g14
((dp485
g16
I2
sg31
I1
stRp486
s(g18
g27
tp487
g14
((dp488
Vquit
p489
I1
sg11
I2
sg16
I1
sg17
I5
sg38
I1
sg31
I5
sg32
I24
sg27
I1
sVaccept
p490
I1
sg18
I2
stRp491
s(g16
g16
tp492
g14
((dp493
Vquit
p494
I27
sg26
I57
sg11
I631
sg16
I823
sg17
I171
sVaccept
p495
I29
sg31
I65
sg27
I627
sg38
I5
sVreject
p496
I2
sg33
I378
sg18
I36
stRp497
ssS'_order'
p498
I3
sS'_ngrams'
p499
ccollections
defaultdict
p500
(g9
tRp501
I2
g9
(tRp502
(g32
tp503
g14
((dp504
g324
I4
sg26
I69
sg11
I288
sg16
I639
sg17
I71
sg325
I18
sg31
I141
sg32
I12
sg27
I920
sg38
I8
sg326
I1
sg33
I610
sg18
I68
stRp505
s(g22
tp506
g14
((dp507
g22
I4010
sg59
I3825
sg33
I172
sg11
I13
stRp508
s(g33
tp509
g14
((dp510
g418
I5
sg26
I199
sg11
I61
sg16
I1007
sg17
I211
sg38
I4
sg31
I1197
sg27
I626
sg33
I33
sg18
I153
stRp511
s(g212
tp512
g14
((dp513
g16
I1
sg198
I1
stRp514
s(g18
tp515
g14
((dp516
g457
I5
sg26
I3
sg11
I531
sg16
I282
sg17
I18
sg241
I100
sg31
I39
sg27
I43
sg38
I3
sg170
I2
sg33
I3
sg18
I69
stRp517
s(g21
tp518
g14
((dp519
g22
I4010
stRp520
s(g26
tp521
g14
((dp522
g481
I8
sg26
I42
sg11
I27
sg16
I212
sg17
I37
sg38
I5
sg31
I174
sg27
I123
sg437
I1
sg33
I104
sg18
I6
stRp523
s(g16
tp524
g14
((dp525
g494
I77
sg26
I139
sg11
I2106
sg16
I2862
sg17
I557
sg140
I677
sg31
I523
sg32
I1
sg27
I1900
sg38
I77
sg141
I29
sg33
I1067
sg18
I131
stRp526
s(g12
tp527
g14
((dp528
g16
I16
sg17
I1
sg18
I1
sg19
I11
sg31
I1
stRp529
s(g100
tp530
g14
((dp531
g16
I1
sg33
I1
sg340
I1
sg57
I2
stRp532
s(g31
tp533
g14
((dp534
g263
I13
sg26
I77
sg11
I354
sg16
I1186
sg17
I168
sg230
I7
sg31
I1380
sg27
I343
sg38
I73
sg231
I11
sg18
I492
stRp535
s(g17
tp536
g14
((dp537
g224
I48
sg26
I67
sg11
I140
sg16
I504
sg17
I125
sg38
I27
sg31
I256
sg32
I3
sg27
I644
sg391
I24
sg390
I18
sg33
I467
sg18
I19
stRp538
s(g11
tp539
g14
((dp540
g145
I23
sg26
I4
sg11
I90
sg16
I684
sg17
I42
sg146
I2601
sg31
I33
sg32
I9
sg27
I49
sg38
I9
sg450
I114
sg18
I100
stRp541
s(g59
tp542
g14
((dp543
g26
I38
sg11
I10
sg16
I2601
sg17
I205
sg118
I1
sg27
I543
sg33
I421
sg18
I6
stRp544
s(g38
tp545
g14
((dp546
g246
I3
sg26
I8
sg11
I52
sg16
I83
sg17
I14
sg38
I5
sg31
I40
sg27
I23
sg378
I3
sg379
I1
sg18
I21
stRp547
s(g27
tp548
g14
((dp549
g489
I8
sg26
I100
sg11
I101
sg16
I112
sg17
I914
sg38
I43
sg31
I362
sg32
I2845
sg27
I612
sg83
I15
sg84
I1
sg33
I647
sg18
I39
stRp550
ssI3
g10
ssS'ngram_counter'
p551
g3
(ccocoa.model.counter
NgramCounter
p552
g5
NtRp553
(dp554
S'unk_label'
p555
V<UNK>
p556
sS'vocabulary'
p557
ccocoa.model.counter
NgramModelVocabulary
p558
((dp559
g22
I8020
sg26
I746
sg11
I3773
sg17
I2363
sg38
I254
sg31
I4146
sg59
I3825
sg146
I3460
sg494
I196
sg21
I1
sg16
I10190
sg32
I2870
sg27
I5826
sg450
I177
sg33
I3525
sg18
I1105
stRp560
sg8
g501
sS'unigrams'
p561
g14
((dp562
g22
I8020
sg26
I746
sg11
I3773
sg17
I2363
sg38
I254
sg31
I4146
sg59
I3825
sg146
I3460
sg494
I196
sg21
I8020
sg16
I10190
sg32
I2870
sg27
I5826
sg450
I177
sg33
I3525
sg18
I1105
stRp563
sS'ngrams_kwargs'
p564
(dp565
Vpad_left
p566
I01
sVpad_right
p567
I00
sVleft_pad_symbol
p568
g21
sVright_pad_symbol
p569
V</s>
p570
ssS'order'
p571
I3
sbsbsS'actions'
p572
(lp573
g22
ag26
ag11
ag16
ag17
ag494
ag38
ag31
ag59
ag27
ag146
ag450
ag32
ag33
ag18
as.