(dp1
S'model'
p2
ccopy_reg
_reconstructor
p3
(ccocoa.model.ngram
MLENgramModel
p4
c__builtin__
object
p5
NtRp6
(dp7
S'ngrams'
p8
cnltk.probability
ConditionalFreqDist
p9
(tRp10
(S'offer'
p11
Vaccept
p12
tp13
cnltk.probability
FreqDist
p14
((dp15
S'unknown'
p16
I1
sVaccept
p17
I1
stRp18
s(V<s>
p19
S'<start>'
p20
tp21
g14
((dp22
g20
I453
stRp23
s(S'vague-price'
p24
S'inquiry'
p25
tp26
g14
((dp27
g24
I1
sg11
I1
sg16
I1
sS'disagree'
p28
I2
sS'inform'
p29
I6
sg25
I3
sS'counter-price'
p30
I1
sS'init-price'
p31
I2
stRp32
s(g29
g25
tp33
g14
((dp34
g24
I3
sg29
I57
sg16
I1
sg28
I12
sS'insist'
p35
I1
sg30
I3
sg25
I6
sg31
I16
stRp36
s(g20
S'intro'
p37
tp38
g14
((dp39
g16
I296
sg28
I22
sg24
I1
sg31
I55
sg25
I57
stRp40
s(g29
g28
tp41
g14
((dp42
Vquit
p43
I1
sg24
I1
sg30
I2
sg11
I2
sg16
I3
sg28
I3
stRp44
s(g24
g35
tp45
g14
((dp46
g11
I1
stRp47
s(g16
Vquit
p48
tp49
g14
((dp50
Vquit
p51
I1
stRp52
s(g37
g31
tp53
g14
((dp54
g30
I20
sg24
I4
sg25
I18
sg16
I11
sg28
I1
sS'agree'
p55
I1
stRp56
s(g35
g11
tp57
g14
((dp58
g16
I4
sg30
I1
sVaccept
p59
I5
sVreject
p60
I1
stRp61
s(g24
g16
tp62
g14
((dp63
g31
I4
sg30
I1
sg25
I3
sg11
I6
sg16
I7
sg28
I1
sg55
I1
stRp64
s(g28
g30
tp65
g14
((dp66
g16
I3
sg25
I1
sg28
I1
sg30
I9
sg11
I1
stRp67
s(g37
g24
tp68
g14
((dp69
g31
I1
stRp70
s(g11
g25
tp71
g14
((dp72
g29
I3
sg28
I2
sVaccept
p73
I2
sg30
I1
stRp74
s(g31
g55
tp75
g14
((dp76
g16
I7
sg11
I7
sg55
I1
sg30
I2
stRp77
s(g55
Vaccept
p78
tp79
g14
((dp80
g16
I1
stRp81
s(g16
g28
tp82
g14
((dp83
g24
I3
sg11
I5
sg16
I16
sg28
I8
sg30
I1
sg25
I18
sVreject
p84
I1
sg31
I11
stRp85
s(g29
g16
tp86
g14
((dp87
g24
I2
sg11
I18
sg16
I18
sg28
I6
sVaccept
p88
I3
sg25
I6
sg31
I7
sg55
I2
stRp89
s(g28
g16
tp90
g14
((dp91
Vquit
p92
I2
sg24
I1
sg11
I13
sg16
I20
sg28
I8
sg30
I4
sg25
I5
sVreject
p93
I2
sg31
I10
sg55
I1
stRp94
s(g30
g30
tp95
g14
((dp96
Vquit
p97
I2
sg11
I20
sg16
I37
sg28
I6
sg35
I10
sg30
I54
sg25
I11
sg55
I18
stRp98
s(g35
g55
tp99
g14
((dp100
g16
I2
sg11
I2
stRp101
s(g11
g16
tp102
g14
((dp103
Vquit
p104
I1
sg25
I1
sVaccept
p105
I74
sVreject
p106
I2
sg16
I6
sg35
I1
stRp107
s(g30
g11
tp108
g14
((dp109
g30
I3
sg25
I2
sVaccept
p110
I21
sVreject
p111
I4
sg16
I8
sg55
I2
sg35
I2
stRp112
s(g28
g25
tp113
g14
((dp114
g29
I40
sg24
I2
sg25
I8
sg30
I3
sg11
I2
sg31
I8
sg28
I14
stRp115
s(g55
g16
tp116
g14
((dp117
g30
I2
sg11
I16
sg16
I2
sg28
I1
sg55
I1
sVaccept
p118
I1
stRp119
s(g11
g11
tp120
g14
((dp121
g55
I1
sVaccept
p122
I5
stRp123
s(g29
g35
tp124
g14
((dp125
g16
I1
sg35
I1
stRp126
s(g55
g55
tp127
g14
((dp128
g16
I2
sg11
I4
stRp129
s(g25
g24
tp130
g14
((dp131
g16
I4
sg25
I6
sg31
I2
sg28
I1
stRp132
s(g31
g28
tp133
g14
((dp134
g30
I6
sg11
I2
sg25
I3
sg31
I2
sg16
I5
stRp135
s(g16
g25
tp136
g14
((dp137
Vquit
p138
I1
sg24
I4
sg11
I5
sg16
I5
sg28
I35
sg35
I1
sg30
I8
sg29
I95
sg25
I29
sg31
I28
sg55
I1
stRp139
s(g35
g24
tp140
g14
((dp141
g30
I1
stRp142
s(g55
g11
tp143
g14
((dp144
g16
I9
sg25
I1
sg55
I1
sVaccept
p145
I45
sg11
I1
stRp146
s(g37
g25
tp147
g14
((dp148
g31
I3
sg29
I29
sg24
I1
sg25
I15
sg16
I2
sg28
I7
stRp149
s(g16
g24
tp150
g14
((dp151
g25
I5
sg28
I2
sg16
I4
sg30
I1
stRp152
s(g29
g24
tp153
g14
((dp154
g31
I2
sg25
I3
sg24
I1
sg28
I1
sg16
I2
stRp155
s(g28
g24
tp156
g14
((dp157
g30
I1
sg31
I3
sg16
I3
stRp158
s(g30
g28
tp159
g14
((dp160
g30
I2
sg25
I3
sg11
I4
sg16
I5
sg28
I2
sg35
I3
stRp161
s(g11
g30
tp162
g14
((dp163
g30
I2
sg24
I1
sVaccept
p164
I3
sVreject
p165
I1
stRp166
s(g31
g11
tp167
g14
((dp168
Vquit
p169
I1
sg30
I1
sg11
I1
sg16
I1
sg55
I1
sVaccept
p170
I4
stRp171
s(g11
g55
tp172
g14
((dp173
g16
I1
sVaccept
p174
I12
sVreject
p175
I1
stRp176
s(g30
g35
tp177
g14
((dp178
Vquit
p179
I1
sg25
I3
sg30
I6
sg11
I2
sg16
I3
sg55
I2
sg35
I2
stRp180
s(g25
g35
tp181
g14
((dp182
g16
I2
sg11
I1
sg55
I2
sg30
I1
stRp183
s(g37
g16
tp184
g14
((dp185
g16
I110
sg25
I108
sg31
I57
sg28
I17
sg24
I4
stRp186
s(g31
g30
tp187
g14
((dp188
Vquit
p189
I1
sg24
I3
sg11
I6
sg16
I29
sg28
I6
sg35
I5
sg30
I65
sg25
I12
sg55
I19
stRp190
s(g28
g35
tp191
g14
((dp192
g28
I1
sg11
I2
stRp193
s(g16
g30
tp194
g14
((dp195
g24
I1
sg11
I9
sg16
I22
sg28
I1
sg35
I2
sg30
I13
sg25
I9
sg55
I4
stRp196
s(g20
g31
tp197
g14
((dp198
g30
I13
sg24
I1
sg25
I2
sg16
I4
stRp199
s(g16
g11
tp200
g14
((dp201
Vquit
p202
I2
sg24
I1
sg11
I4
sg16
I44
sg28
I3
sVaccept
p203
I150
sg30
I1
sg25
I3
sVreject
p204
I6
sg55
I6
stRp205
s(g30
g25
tp206
g14
((dp207
g24
I1
sg11
I4
sg28
I5
sg35
I2
sg29
I20
sg25
I2
sg30
I10
sVreject
p208
I1
sg55
I1
stRp209
s(g35
g28
tp210
g14
((dp211
g11
I1
stRp212
s(g25
g16
tp213
g14
((dp214
g30
I2
sg25
I3
sg31
I2
sg16
I7
stRp215
s(g25
g28
tp216
g14
((dp217
g24
I3
sg11
I2
sg16
I22
sg28
I5
sg30
I4
sg25
I37
sg31
I29
sg55
I3
stRp218
s(g37
g28
tp219
g14
((dp220
g16
I5
sg25
I12
sg31
I2
sg28
I3
stRp221
s(g20
g20
tp222
g14
((dp223
g37
I431
sg31
I20
sg11
I2
stRp224
s(g28
g28
tp225
g14
((dp226
g16
I7
sg25
I5
sg31
I5
sg28
I5
sg11
I4
stRp227
s(g25
g55
tp228
g14
((dp229
g11
I2
stRp230
s(g30
g24
tp231
g14
((dp232
g16
I3
sg30
I1
sg35
I1
sVquit
p233
I1
stRp234
s(g24
g30
tp235
g14
((dp236
g30
I2
sg24
I1
sg25
I6
sg11
I1
sg16
I6
sg28
I2
sg55
I1
stRp237
s(g25
g29
tp238
g14
((dp239
Vquit
p240
I1
sg24
I9
sg11
I37
sg16
I64
sg28
I13
sg35
I2
sg30
I14
sg25
I100
sg31
I82
sg55
I2
stRp241
s(g55
g30
tp242
g14
((dp243
g30
I2
sg55
I1
sVquit
p244
I1
stRp245
s(g16
g35
tp246
g14
((dp247
g16
I3
sg24
I1
sg11
I4
stRp248
s(g29
g31
tp249
g14
((dp250
Vquit
p251
I2
sg24
I4
sg11
I1
sg16
I22
sg28
I3
sg30
I34
sg25
I8
sg55
I7
stRp252
s(g30
g55
tp253
g14
((dp254
g16
I7
sg11
I31
sg25
I2
sg55
I4
sg30
I2
stRp255
s(g16
g31
tp256
g14
((dp257
g30
I39
sg24
I11
sg25
I21
sg11
I3
sg16
I39
sg28
I5
sg55
I5
stRp258
s(g25
g11
tp259
g14
((dp260
g16
I8
sg25
I1
sVaccept
p261
I5
sVreject
p262
I1
stRp263
s(g19
g19
tp264
g14
((dp265
g20
I453
stRp266
s(g28
g55
tp267
g14
((dp268
g16
I1
sg25
I1
sVreject
p269
I1
stRp270
s(g35
g16
tp271
g14
((dp272
g48
I1
sg25
I2
sg30
I2
sg11
I3
sg28
I1
sg55
I1
sVaccept
p273
I1
stRp274
s(g25
g30
tp275
g14
((dp276
g30
I7
sg25
I6
sg11
I4
sg16
I19
sg28
I1
sg55
I2
stRp277
s(g11
g35
tp278
g14
((dp279
g16
I1
sVaccept
p280
I2
stRp281
s(g30
g16
tp282
g14
((dp283
Vquit
p284
I2
sg24
I1
sg11
I63
sg16
I24
sg28
I2
sg35
I6
sg30
I13
sg25
I4
sg55
I5
stRp285
s(g11
g28
tp286
g14
((dp287
Vaccept
p288
I4
stRp289
s(g25
g25
tp290
g14
((dp291
g24
I1
sg11
I1
sg16
I2
sg28
I15
sg30
I1
sg29
I46
sg25
I15
sg31
I4
stRp292
s(g29
g30
tp293
g14
((dp294
g30
I5
sg11
I1
sg16
I4
sg28
I2
sg55
I1
sg35
I1
stRp295
s(g24
g28
tp296
g14
((dp297
g16
I3
sVquit
p298
I1
stRp299
s(g29
g11
tp300
g14
((dp301
g25
I1
sVaccept
p302
I26
sg16
I5
sg28
I1
sg55
I3
sg35
I1
stRp303
s(g31
g16
tp304
g14
((dp305
Vquit
p306
I1
sg11
I26
sg16
I34
sg28
I5
sg35
I1
sg30
I31
sg25
I10
sg31
I4
stRp307
s(g31
g24
tp308
g14
((dp309
g31
I2
sg16
I7
sg25
I2
sg30
I15
sg11
I1
stRp310
s(g25
g31
tp311
g14
((dp312
g30
I18
sg24
I3
sg25
I10
sg11
I2
sg16
I23
sg28
I5
sg55
I2
stRp313
s(g24
g31
tp314
g14
((dp315
g16
I3
sg11
I1
sg25
I2
sg28
I1
sg30
I3
stRp316
s(g35
g35
tp317
g14
((dp318
g30
I1
sg16
I1
sg35
I1
sg11
I1
stRp319
s(g35
g25
tp320
g14
((dp321
g30
I1
sg28
I1
sg29
I1
stRp322
s(g11
g24
tp323
g14
((dp324
Vreject
p325
I1
stRp326
s(g35
g30
tp327
g14
((dp328
Vquit
p329
I1
sg25
I1
sg30
I2
sg11
I1
sg16
I1
sg55
I1
sg35
I1
stRp330
s(g29
g55
tp331
g14
((dp332
g16
I1
sg11
I1
stRp333
s(g28
g11
tp334
g14
((dp335
g16
I5
sVaccept
p336
I12
sVreject
p337
I3
stRp338
s(g20
g11
tp339
g14
((dp340
g16
I1
sg30
I1
stRp341
s(g16
g55
tp342
g14
((dp343
g16
I2
sg55
I1
sg11
I10
stRp344
s(g31
g25
tp345
g14
((dp346
g11
I1
sg16
I3
sg28
I12
sg35
I2
sg29
I26
sg25
I8
sg30
I11
sg31
I3
stRp347
s(g24
g11
tp348
g14
((dp349
Vaccept
p350
I1
stRp351
s(g28
g31
tp352
g14
((dp353
g30
I19
sg24
I4
sg25
I5
sg11
I2
sg16
I12
sg28
I3
sg55
I2
stRp354
s(g24
g24
tp355
g14
((dp356
g25
I1
stRp357
s(g55
g25
tp358
g14
((dp359
g29
I2
sg11
I1
stRp360
s(g16
g16
tp361
g14
((dp362
Vquit
p363
I1
sg24
I4
sg11
I76
sg16
I77
sg28
I22
sVaccept
p364
I6
sg30
I6
sg25
I70
sVreject
p365
I1
sg31
I40
sg55
I2
stRp366
ssS'_order'
p367
I3
sS'_ngrams'
p368
ccollections
defaultdict
p369
(g9
tRp370
I2
g9
(tRp371
(g30
tp372
g14
((dp373
g97
I5
sg24
I6
sg11
I43
sg16
I121
sg28
I19
sg35
I19
sg30
I161
sg25
I46
sg164
I3
sg165
I1
sg55
I47
stRp374
s(g20
tp375
g14
((dp376
g20
I453
sg37
I431
sg31
I20
sg11
I2
stRp377
s(g31
tp378
g14
((dp379
g251
I2
sg24
I27
sg11
I9
sg16
I114
sg28
I18
sg30
I146
sg25
I66
sg55
I17
stRp380
s(g55
tp381
g14
((dp382
g30
I4
sg25
I3
sg11
I57
sg16
I23
sg269
I2
sg55
I6
sg174
I12
stRp383
s(g19
tp384
g14
((dp385
g20
I453
stRp386
s(g24
tp387
g14
((dp388
g233
I1
sg24
I1
sg11
I1
sg16
I23
sg28
I4
sg35
I1
sg30
I19
sg25
I17
sg325
I1
sg31
I10
stRp389
s(g16
tp390
g14
((dp391
g363
I8
sg24
I12
sg11
I221
sg16
I305
sg28
I63
sg105
I85
sg30
I61
sg25
I212
sg35
I8
sg93
I5
sg31
I124
sg55
I13
stRp392
s(g12
tp393
g14
((dp394
g16
I2
sg17
I1
stRp395
s(g48
tp396
g14
((dp397
g51
I1
stRp398
s(g29
tp399
g14
((dp400
g240
I1
sg24
I9
sg11
I37
sg16
I64
sg28
I13
sg35
I2
sg30
I14
sg25
I100
sg31
I82
sg55
I2
stRp401
s(g28
tp402
g14
((dp403
g43
I2
sg24
I7
sg11
I20
sg16
I66
sg28
I26
sg35
I3
sg30
I15
sg25
I78
sg288
I4
sg84
I1
sg31
I49
sg55
I3
stRp404
s(g11
tp405
g14
((dp406
g169
I3
sg24
I1
sg11
I6
sg16
I85
sg28
I4
sg336
I274
sg30
I7
sg25
I8
sg35
I3
sg204
I15
sg55
I14
stRp407
s(g37
tp408
g14
((dp409
g16
I296
sg28
I22
sg24
I1
sg31
I55
sg25
I57
stRp410
s(g35
tp411
g14
((dp412
g179
I1
sg24
I1
sg11
I11
sg16
I11
sg28
I1
sg280
I2
sg30
I8
sg25
I3
sg35
I4
sg55
I4
stRp413
s(g25
tp414
g14
((dp415
g138
I1
sg24
I13
sg11
I15
sg16
I14
sg28
I105
sg35
I6
sg30
I39
sg29
I325
sg25
I86
sg73
I2
sg208
I1
sg31
I64
sg55
I2
stRp416
ssI3
g10
ssS'ngram_counter'
p417
g3
(ccocoa.model.counter
NgramCounter
p418
g5
NtRp419
(dp420
S'unk_label'
p421
V<UNK>
p422
sS'vocabulary'
p423
ccocoa.model.counter
NgramModelVocabulary
p424
((dp425
g20
I906
sg24
I78
sg11
I422
sg28
I275
sg336
I383
sg30
I474
sg37
I431
sg35
I46
sg169
I25
sg19
I1
sg16
I1124
sg29
I325
sg25
I676
sg204
I26
sg31
I404
sg55
I108
stRp426
sg8
g370
sS'unigrams'
p427
g14
((dp428
g20
I906
sg24
I78
sg11
I422
sg28
I275
sg336
I383
sg30
I474
sg37
I431
sg35
I46
sg169
I25
sg19
I906
sg16
I1124
sg29
I325
sg25
I676
sg204
I26
sg31
I404
sg55
I108
stRp429
sS'ngrams_kwargs'
p430
(dp431
Vpad_left
p432
I01
sVpad_right
p433
I00
sVleft_pad_symbol
p434
g19
sVright_pad_symbol
p435
V</s>
p436
ssS'order'
p437
I3
sbsbsS'actions'
p438
(lp439
g20
ag24
ag11
ag16
ag28
ag169
ag336
ag29
ag37
ag25
ag35
ag30
ag204
ag31
ag55
as.