(dp1
S'model'
p2
ccopy_reg
_reconstructor
p3
(ccocoa.model.ngram
MLENgramModel
p4
c__builtin__
object
p5
NtRp6
(dp7
S'ngrams'
p8
cnltk.probability
ConditionalFreqDist
p9
(tRp10
(V<s>
p11
S'<start>'
p12
tp13
cnltk.probability
FreqDist
p14
((dp15
g12
I4168
stRp16
s(S'vague-price'
p17
S'inquiry'
p18
tp19
g14
((dp20
S'counter-price'
p21
I15
sg17
I1
sg18
I3
sS'inform'
p22
I11
sS'init-price'
p23
I23
sS'disagree'
p24
I1
sS'agree'
p25
I1
stRp26
s(g22
g18
tp27
g14
((dp28
g17
I5
sS'offer'
p29
I3
sS'unknown'
p30
I12
sg24
I129
sS'insist'
p31
I5
sg21
I20
sg22
I352
sg18
I41
sg23
I132
sg25
I1
stRp32
s(g12
S'intro'
p33
tp34
g14
((dp35
g23
I627
sg17
I29
sg18
I530
sg29
I11
sg30
I2498
sg24
I185
sg25
I6
stRp36
s(g22
g24
tp37
g14
((dp38
g23
I10
sg21
I4
sg17
I2
sg18
I5
sg29
I1
sg30
I10
sg24
I8
stRp39
s(g25
g17
tp40
g14
((dp41
g21
I3
stRp42
s(g17
g31
tp43
g14
((dp44
g21
I4
sg24
I1
sg18
I1
sg25
I1
sg30
I2
stRp45
s(g33
g23
tp46
g14
((dp47
g23
I9
sg21
I291
sg17
I16
sg18
I183
sg30
I87
sg24
I21
sg25
I20
stRp48
s(g31
g29
tp49
g14
((dp50
g17
I1
sg29
I1
sg30
I11
sg24
I1
sg31
I1
sg21
I2
sg18
I1
sg25
I2
stRp51
s(g17
g30
tp52
g14
((dp53
g29
I1
sg30
I6
sg24
I2
sg31
I1
sg21
I9
sg18
I6
sg23
I20
sg25
I1
stRp54
s(g24
g21
tp55
g14
((dp56
g17
I2
sg29
I23
sg30
I36
sg24
I17
sg31
I2
sg21
I156
sg18
I12
sg25
I27
stRp57
s(g33
g17
tp58
g14
((dp59
g18
I10
sg17
I1
sg23
I12
sg24
I3
sg30
I3
stRp60
s(g29
g18
tp61
g14
((dp62
g22
I21
sg18
I3
sg24
I2
sg31
I4
sg21
I3
stRp63
s(g25
g23
tp64
g14
((dp65
g21
I2
stRp66
s(g23
g25
tp67
g14
((dp68
g21
I46
sg17
I2
sg18
I20
sg29
I70
sg30
I73
sg24
I5
sg25
I20
stRp69
s(g25
g24
tp70
g14
((dp71
g30
I7
sg29
I11
sg18
I2
sg25
I4
sg21
I5
stRp72
s(g30
g24
tp73
g14
((dp74
g17
I14
sg29
I20
sg30
I72
sg24
I22
sg31
I1
sg21
I30
sg18
I96
sg23
I135
sg25
I8
stRp75
s(g22
g30
tp76
g14
((dp77
g17
I1
sg29
I79
sg30
I88
sg24
I28
sg31
I2
sg21
I11
sg18
I27
sg23
I53
sg25
I5
stRp78
s(g33
g29
tp79
g14
((dp80
g30
I5
sg18
I1
sg24
I1
sg31
I2
sg21
I2
stRp81
s(g24
g30
tp82
g14
((dp83
g17
I3
sg29
I38
sg30
I78
sg24
I40
sg31
I2
sg21
I21
sg18
I22
sg23
I43
sg25
I4
stRp84
s(g21
g21
tp85
g14
((dp86
g17
I22
sg29
I330
sg30
I796
sg24
I79
sg31
I132
sg21
I1239
sg18
I175
sg25
I515
stRp87
s(g31
g25
tp88
g14
((dp89
g21
I2
sg18
I3
sg29
I16
sg30
I15
sg24
I1
sg25
I2
stRp90
s(g29
g30
tp91
g14
((dp92
g21
I4
sg18
I10
sg30
I34
sg24
I3
sg25
I2
sg31
I1
stRp93
s(g21
g29
tp94
g14
((dp95
g21
I22
sg18
I6
sg29
I1
sg30
I117
sg24
I11
sg25
I29
sg31
I4
stRp96
s(g24
g18
tp97
g14
((dp98
g17
I4
sg29
I3
sg30
I9
sg24
I98
sg31
I1
sg22
I221
sg18
I27
sg21
I31
sg23
I92
sg25
I1
stRp99
s(g25
g30
tp100
g14
((dp101
g23
I1
sg21
I14
sg18
I8
sg29
I359
sg30
I65
sg24
I7
sg25
I19
stRp102
s(g17
g25
tp103
g14
((dp104
g21
I1
stRp105
s(g29
g29
tp106
g14
((dp107
g30
I1
sg25
I1
stRp108
s(g22
g31
tp109
g14
((dp110
g21
I2
sg30
I2
sg17
I1
sg31
I1
sg29
I1
stRp111
s(g25
g25
tp112
g14
((dp113
g30
I23
sg29
I82
sg18
I4
sg25
I11
sg21
I6
stRp114
s(g18
g17
tp115
g14
((dp116
g23
I15
sg21
I9
sg17
I1
sg18
I6
sg30
I1
sg24
I1
stRp117
s(g23
g23
tp118
g14
((dp119
g21
I33
sg18
I5
sg29
I1
sg30
I5
sg24
I2
sg25
I6
stRp120
s(g23
g24
tp121
g14
((dp122
g17
I2
sg29
I6
sg30
I23
sg24
I4
sg31
I10
sg21
I58
sg18
I17
sg23
I12
stRp123
s(g30
g18
tp124
g14
((dp125
g17
I9
sg29
I15
sg30
I29
sg24
I267
sg21
I60
sg22
I740
sg18
I144
sg23
I277
sg25
I5
stRp126
s(g31
g17
tp127
g14
((dp128
g21
I4
sg31
I1
stRp129
s(g25
g29
tp130
g14
((dp131
g21
I2
sg18
I4
sg29
I24
sg30
I154
sg24
I5
sg25
I24
stRp132
s(g33
g18
tp133
g14
((dp134
g23
I113
sg22
I234
sg17
I3
sg18
I97
sg29
I1
sg30
I19
sg24
I63
stRp135
s(g30
g17
tp136
g14
((dp137
g23
I18
sg21
I6
sg17
I4
sg18
I11
sg30
I6
sg24
I1
stRp138
s(g22
g17
tp139
g14
((dp140
g23
I19
sg21
I3
sg17
I4
sg18
I7
sg30
I11
sg24
I2
stRp141
s(g24
g17
tp142
g14
((dp143
g23
I19
sg21
I9
sg17
I1
sg18
I3
sg29
I2
sg30
I7
sg24
I3
stRp144
s(g21
g24
tp145
g14
((dp146
g17
I3
sg29
I44
sg30
I34
sg24
I9
sg31
I14
sg21
I59
sg18
I15
sg25
I10
stRp147
s(g29
g21
tp148
g14
((dp149
g30
I9
sg24
I1
sg25
I1
sg31
I9
sg21
I6
stRp150
s(g23
g29
tp151
g14
((dp152
g21
I10
sg25
I1
sg30
I11
stRp153
s(g29
g25
tp154
g14
((dp155
g30
I13
sg25
I6
stRp156
s(g21
g31
tp157
g14
((dp158
g17
I2
sg29
I34
sg30
I47
sg24
I11
sg31
I15
sg21
I59
sg18
I11
sg25
I24
stRp159
s(g18
g31
tp160
g14
((dp161
g21
I11
sg18
I2
sg29
I4
sg30
I16
sg25
I5
sg31
I1
stRp162
s(g33
g30
tp163
g14
((dp164
g23
I620
sg17
I17
sg18
I892
sg29
I5
sg30
I802
sg24
I159
sg25
I3
stRp165
s(g23
g21
tp166
g14
((dp167
g17
I23
sg29
I70
sg30
I464
sg24
I56
sg31
I43
sg21
I1283
sg18
I148
sg25
I323
stRp168
s(g24
g31
tp169
g14
((dp170
g30
I9
sg18
I2
sg25
I1
sg21
I9
sg29
I6
stRp171
s(g30
g21
tp172
g14
((dp173
g17
I5
sg29
I40
sg30
I87
sg24
I18
sg31
I6
sg21
I215
sg18
I25
sg25
I43
stRp174
s(g12
g23
tp175
g14
((dp176
g23
I3
sg21
I120
sg17
I9
sg18
I37
sg30
I81
sg24
I8
sg25
I8
stRp177
s(g30
g29
tp178
g14
((dp179
g21
I8
sg18
I24
sg29
I56
sg30
I322
sg24
I18
sg25
I65
sg31
I3
stRp180
s(g33
g25
tp181
g14
((dp182
g30
I2
sg18
I3
sg23
I1
stRp183
s(g21
g18
tp184
g14
((dp185
g17
I2
sg29
I25
sg30
I7
sg24
I48
sg31
I18
sg22
I218
sg18
I20
sg21
I73
sg25
I2
stRp186
s(g31
g24
tp187
g14
((dp188
g21
I5
sg29
I2
sg30
I3
sg24
I1
sg25
I1
sg31
I3
stRp189
s(g18
g30
tp190
g14
((dp191
g17
I2
sg29
I1
sg30
I28
sg24
I7
sg21
I11
sg22
I1
sg18
I22
sg23
I16
sg25
I1
stRp192
s(g18
g24
tp193
g14
((dp194
g17
I22
sg29
I13
sg30
I79
sg24
I16
sg22
I3
sg18
I248
sg21
I109
sg23
I284
sg25
I13
stRp195
s(g33
g24
tp196
g14
((dp197
g23
I59
sg17
I2
sg18
I89
sg29
I1
sg30
I26
sg24
I8
stRp198
s(g12
g12
tp199
g14
((dp200
g33
I3886
sg23
I266
sg29
I16
stRp201
s(g23
g31
tp202
g14
((dp203
g21
I3
stRp204
s(g24
g24
tp205
g14
((dp206
g23
I22
sg21
I9
sg17
I1
sg18
I15
sg29
I6
sg30
I12
sg24
I7
stRp207
s(g18
g25
tp208
g14
((dp209
g30
I3
sg29
I9
sg25
I2
sg21
I2
stRp210
s(g21
g17
tp211
g14
((dp212
g17
I3
sg29
I4
sg30
I6
sg24
I7
sg31
I5
sg21
I31
sg18
I4
sg25
I1
stRp213
s(g24
g22
tp214
g14
((dp215
g18
I1
sg24
I1
sg29
I1
stRp216
s(g17
g21
tp217
g14
((dp218
g21
I66
sg17
I1
sg18
I7
sg29
I5
sg30
I25
sg24
I4
sg25
I10
stRp219
s(g18
g22
tp220
g14
((dp221
g17
I46
sg29
I140
sg30
I312
sg24
I40
sg31
I7
sg21
I247
sg22
I4
sg18
I702
sg23
I693
sg25
I76
stRp222
s(g25
g21
tp223
g14
((dp224
g21
I50
sg17
I1
sg18
I4
sg29
I8
sg30
I25
sg24
I3
sg25
I16
stRp225
s(g30
g31
tp226
g14
((dp227
g17
I2
sg29
I21
sg30
I27
sg24
I4
sg31
I1
sg21
I28
sg18
I3
sg25
I6
stRp228
s(g22
g23
tp229
g14
((dp230
g17
I14
sg29
I15
sg30
I102
sg24
I25
sg31
I1
sg21
I432
sg18
I35
sg23
I8
sg25
I51
stRp231
s(g21
g25
tp232
g14
((dp233
g17
I1
sg29
I501
sg30
I302
sg24
I20
sg31
I5
sg21
I49
sg18
I31
sg25
I80
stRp234
s(g30
g23
tp235
g14
((dp236
g17
I23
sg29
I12
sg30
I162
sg24
I39
sg31
I1
sg21
I719
sg18
I147
sg23
I19
sg25
I73
stRp237
s(g18
g29
tp238
g14
((dp239
g30
I23
sg18
I1
sg25
I3
sg31
I1
sg22
I4
stRp240
s(g11
g11
tp241
g14
((dp242
g12
I4168
stRp243
s(g24
g25
tp244
g14
((dp245
g30
I10
sg29
I20
sg18
I2
sg25
I1
sg21
I2
stRp246
s(g31
g30
tp247
g14
((dp248
g21
I9
sg18
I1
sg29
I59
sg30
I17
sg24
I2
sg25
I5
sg31
I7
stRp249
s(g18
g21
tp250
g14
((dp251
g17
I6
sg29
I17
sg30
I74
sg24
I10
sg31
I5
sg21
I177
sg18
I29
sg25
I25
stRp252
s(g29
g31
tp253
g14
((dp254
g30
I6
sg24
I1
sg25
I1
sg21
I1
stRp255
s(g21
g30
tp256
g14
((dp257
g17
I4
sg29
I947
sg30
I303
sg24
I27
sg31
I46
sg21
I134
sg18
I46
sg25
I56
stRp258
s(g29
g24
tp259
g14
((dp260
g21
I1
sg18
I1
sg24
I1
sg30
I5
stRp261
s(g18
g18
tp262
g14
((dp263
g17
I1
sg29
I7
sg30
I5
sg24
I63
sg31
I1
sg22
I164
sg18
I32
sg21
I36
sg23
I86
sg25
I5
stRp264
s(g22
g21
tp265
g14
((dp266
g17
I4
sg29
I12
sg30
I51
sg24
I14
sg31
I6
sg21
I124
sg18
I10
sg25
I22
stRp267
s(g17
g24
tp268
g14
((dp269
g23
I8
sg21
I4
sg18
I1
sg24
I2
sg30
I1
stRp270
s(g22
g29
tp271
g14
((dp272
g21
I1
sg18
I2
sg29
I1
sg30
I35
sg24
I1
sg25
I6
stRp273
s(g23
g30
tp274
g14
((dp275
g17
I3
sg29
I127
sg30
I175
sg24
I36
sg31
I24
sg21
I131
sg18
I69
sg23
I41
sg25
I8
stRp276
s(g23
g17
tp277
g14
((dp278
g17
I3
sg29
I1
sg30
I12
sg24
I2
sg31
I3
sg21
I49
sg18
I14
sg23
I5
stRp279
s(g18
g23
tp280
g14
((dp281
g17
I15
sg29
I9
sg30
I86
sg24
I22
sg31
I1
sg21
I444
sg18
I122
sg23
I2
sg25
I34
stRp282
s(g17
g23
tp283
g14
((dp284
g21
I66
sg29
I3
sg18
I11
sg25
I7
sg30
I9
stRp285
s(g31
g31
tp286
g14
((dp287
g21
I5
sg18
I1
sg29
I4
sg30
I4
sg24
I1
sg25
I2
sg31
I2
stRp288
s(g31
g18
tp289
g14
((dp290
g21
I4
sg22
I9
sg18
I1
sg29
I1
sg24
I2
sg25
I1
sg31
I2
stRp291
s(g22
g22
tp292
g14
((dp293
g21
I1
sg18
I2
sg31
I1
sg30
I1
stRp294
s(g30
g22
tp295
g14
((dp296
g22
I1
stRp297
s(g29
g17
tp298
g14
((dp299
g21
I1
stRp300
s(g31
g21
tp301
g14
((dp302
g21
I39
sg18
I7
sg29
I14
sg30
I26
sg24
I6
sg25
I19
sg31
I8
stRp303
s(g22
g25
tp304
g14
((dp305
g30
I23
sg18
I5
sg24
I1
sg25
I2
sg29
I39
stRp306
s(g24
g29
tp307
g14
((dp308
g21
I4
sg18
I1
sg29
I2
sg30
I14
sg24
I1
sg25
I2
stRp309
s(g12
g29
tp310
g14
((dp311
g21
I3
sg17
I1
sg18
I3
sg30
I7
sg24
I1
sg31
I1
stRp312
s(g30
g25
tp313
g14
((dp314
g23
I1
sg21
I2
sg18
I5
sg29
I82
sg30
I21
sg24
I2
sg25
I7
stRp315
s(g23
g18
tp316
g14
((dp317
g17
I9
sg29
I8
sg30
I8
sg24
I114
sg31
I8
sg22
I271
sg18
I29
sg21
I96
sg23
I21
sg25
I1
stRp318
s(g25
g31
tp319
g14
((dp320
g21
I1
sg29
I4
stRp321
s(g17
g29
tp322
g14
((dp323
g24
I1
sg18
I1
stRp324
s(g24
g23
tp325
g14
((dp326
g17
I12
sg29
I7
sg30
I87
sg24
I17
sg21
I327
sg18
I26
sg23
I11
sg25
I38
stRp327
s(g17
g17
tp328
g14
((dp329
g30
I1
sg23
I9
sg21
I5
sg29
I1
stRp330
s(g25
g18
tp331
g14
((dp332
g22
I43
sg18
I4
sg21
I10
sg29
I6
sg30
I1
sg24
I6
sg25
I1
stRp333
s(g30
g30
tp334
g14
((dp335
g17
I16
sg29
I412
sg30
I461
sg24
I103
sg31
I13
sg21
I107
sg18
I449
sg23
I414
sg25
I24
stRp336
ssS'_order'
p337
I3
sS'_ngrams'
p338
ccollections
defaultdict
p339
(g9
tRp340
I2
g9
(tRp341
(g22
tp342
g14
((dp343
g17
I46
sg29
I141
sg30
I313
sg24
I41
sg31
I8
sg21
I248
sg22
I5
sg18
I705
sg23
I693
sg25
I76
stRp344
s(g12
tp345
g14
((dp346
g12
I4168
sg33
I3886
sg23
I266
sg29
I16
stRp347
s(g23
tp348
g14
((dp349
g17
I89
sg29
I47
sg30
I619
sg24
I134
sg31
I3
sg21
I2434
sg18
I566
sg23
I52
sg25
I237
stRp350
s(g25
tp351
g14
((dp352
g17
I3
sg29
I819
sg30
I485
sg24
I29
sg31
I5
sg21
I110
sg18
I73
sg23
I2
sg25
I131
stRp353
s(g11
tp354
g14
((dp355
g12
I4168
stRp356
s(g17
tp357
g14
((dp358
g17
I17
sg29
I8
sg30
I47
sg24
I19
sg31
I9
sg21
I120
sg18
I55
sg23
I97
sg25
I1
stRp359
s(g30
tp360
g14
((dp361
g17
I46
sg29
I2028
sg30
I2057
sg24
I414
sg31
I96
sg21
I451
sg22
I1
sg18
I1552
sg23
I1208
sg25
I128
stRp362
s(g21
tp363
g14
((dp364
g17
I64
sg29
I519
sg30
I1593
sg24
I208
sg31
I211
sg21
I3355
sg18
I417
sg25
I1001
stRp365
s(g24
tp366
g14
((dp367
g17
I46
sg29
I104
sg30
I272
sg24
I78
sg31
I28
sg21
I284
sg22
I3
sg18
I489
sg23
I530
sg25
I36
stRp368
s(g29
tp369
g14
((dp370
g17
I2
sg29
I85
sg30
I700
sg24
I40
sg31
I12
sg21
I54
sg22
I4
sg18
I44
sg25
I133
stRp371
s(g33
tp372
g14
((dp373
g23
I627
sg17
I29
sg18
I530
sg29
I11
sg30
I2498
sg24
I185
sg25
I6
stRp374
s(g31
tp375
g14
((dp376
g17
I5
sg29
I74
sg30
I113
sg24
I18
sg31
I20
sg21
I123
sg18
I20
sg25
I40
stRp377
s(g18
tp378
g14
((dp379
g17
I34
sg29
I69
sg30
I90
sg24
I793
sg31
I39
sg21
I348
sg22
I2284
sg18
I401
sg23
I744
sg25
I18
stRp380
ssI3
g10
ssS'ngram_counter'
p381
g3
(ccocoa.model.counter
NgramCounter
p382
g5
NtRp383
(dp384
S'unk_label'
p385
V<UNK>
p386
sS'vocabulary'
p387
ccocoa.model.counter
NgramModelVocabulary
p388
((dp389
g12
I8336
sg17
I381
sg29
I3921
sg11
I1
sg30
I8787
sg24
I1959
sg31
I431
sg21
I7527
sg33
I3886
sg18
I4852
sg22
I2297
sg23
I4219
sg25
I1807
stRp390
sg8
g340
sS'unigrams'
p391
g14
((dp392
g12
I8336
sg17
I381
sg29
I3921
sg11
I8336
sg30
I8787
sg24
I1959
sg31
I431
sg21
I7527
sg33
I3886
sg18
I4852
sg22
I2297
sg23
I4219
sg25
I1807
stRp393
sS'ngrams_kwargs'
p394
(dp395
Vpad_left
p396
I01
sVpad_right
p397
I00
sVleft_pad_symbol
p398
g11
sVright_pad_symbol
p399
V</s>
p400
ssS'order'
p401
I3
sbsbsS'actions'
p402
(lp403
g12
ag17
ag29
ag30
ag24
ag31
ag21
ag33
ag18
ag22
ag23
ag25
as.